; Function Attrs: mustprogress uwtable
define hidden void @_ZN2lp10lar_solver31detect_rows_with_changed_boundsEv(ptr noundef nonnull align 8 dereferenceable(2128) %0) local_unnamed_addr #5 align 2 {
  %2 = getelementptr inbounds nuw i8, ptr %0, i64 1432
  %3 = getelementptr inbounds nuw i8, ptr %0, i64 1440
  %4 = load ptr, ptr %3, align 8, !tbaa !247
  %5 = load i32, ptr %2, align 8, !tbaa !225
  %6 = zext i32 %5 to i64
  %7 = getelementptr inbounds nuw i32, ptr %4, i64 %6
  %.not8 = icmp eq i32 %5, 0
  br i1 %.not8, label %._crit_edge, label %.lr.ph

._crit_edge:                                      ; preds = %.lr.ph, %1
  %8 = getelementptr inbounds nuw i8, ptr %0, i64 2112
  %9 = load ptr, ptr %8, align 8, !tbaa !283
  %.not.i.i.not = icmp eq ptr %9, null
  br i1 %.not.i.i.not, label %15, label %_ZNKSt8functionIFvRK16indexed_uint_setEEclES2_.exit

.lr.ph:                                           ; preds = %1, %.lr.ph
  %.09 = phi ptr [ %11, %.lr.ph ], [ %4, %1 ]
  %10 = load i32, ptr %.09, align 4, !tbaa !261
  tail call void @_ZN2lp10lar_solver42detect_rows_with_changed_bounds_for_columnEj(ptr noundef nonnull align 8 dereferenceable(2128) %0, i32 noundef %10)
  %11 = getelementptr inbounds nuw i8, ptr %.09, i64 4
  %.not = icmp eq ptr %11, %7
  br i1 %.not, label %._crit_edge, label %.lr.ph

_ZNKSt8functionIFvRK16indexed_uint_setEEclES2_.exit: ; preds = %._crit_edge
  %12 = getelementptr inbounds nuw i8, ptr %0, i64 2096
  %13 = getelementptr inbounds nuw i8, ptr %0, i64 2120
  %14 = load ptr, ptr %13, align 8, !tbaa !383
  tail call void %14(ptr noundef nonnull align 8 dereferenceable(32) %12, ptr noundef nonnull align 8 dereferenceable(24) %2)
  br label %15

15:                                               ; preds = %_ZNKSt8functionIFvRK16indexed_uint_setEEclES2_.exit, %._crit_edge
  ret void
}